(lp0
S'010.011.003.003.55131-108.160.165.014.00443'
p1
aS'010.011.003.003.49325-108.160.165.014.00443'
p2
aS'010.011.003.003.45280-108.160.165.014.00443'
p3
aS'010.011.003.003.48204-108.160.165.014.00443'
p4
aS'010.011.003.003.38506-108.160.165.014.00443'
p5
aS'010.011.003.003.60949-054.243.139.204.00443'
p6
aS'010.011.003.003.42653-074.125.029.095.00443'
p7
aS'010.011.003.003.57911-108.160.166.014.00443'
p8
aS'010.011.003.003.37215-054.243.139.204.00443'
p9
aS'010.011.003.003.60361-108.160.166.014.00443'
p10
aS'010.011.003.003.55163-108.160.166.014.00443'
p11
a.