(lp0
S'010.011.003.003.47851-193.182.008.113.00080'
p1
aS'010.011.003.003.33600-193.182.008.085.04070'
p2
aS'010.011.003.003.39114-107.022.180.095.00443'
p3
aS'010.011.003.003.34788-066.220.152.019.00443'
p4
aS'010.011.003.003.50513-074.125.228.030.00443'
p5
a.