(lp0
S'010.011.003.003.51411-130.245.009.212.00443'
p1
aS'010.011.003.003.42309-130.245.009.212.00443'
p2
aS'010.011.003.003.34483-199.167.177.040.01237'
p3
aS'010.011.003.003.54696-108.160.165.141.00443'
p4
aS'010.011.003.003.47009-107.021.232.019.00443'
p5
aS'010.011.003.003.33117-107.021.232.019.00443'
p6
aS'010.011.003.003.55163-108.160.166.014.00443'
p7
aS'010.011.003.003.54916-108.160.165.141.00443'
p8
aS'010.011.003.003.48232-108.160.165.141.00443'
p9
aS'010.011.003.003.59361-054.225.190.248.00443'
p10
aS'010.011.003.003.41840-074.125.228.013.00443'
p11
aS'010.011.003.003.33296-074.125.228.025.00080'
p12
aS'010.011.003.003.55904-074.125.228.041.00443'
p13
a.